
kernel8.elf:     file format elf64-littleaarch64

Sections:
Idx Name          Size      VMA               LMA               File off  Algn
  0 .text         00001180  0000000000080000  0000000000080000  00000800  2**11
                  CONTENTS, ALLOC, LOAD, READONLY, CODE
  1 .rodata       00000020  0000000000081180  0000000000081180  00001980  2**3
                  CONTENTS, ALLOC, LOAD, READONLY, DATA
  2 .bss          00000004  00000000000811a0  00000000000811a0  000019a0  2**2
                  ALLOC
Contents of section .text:
 80000 a10038d5 3f0440f2 60000054 5f2003d5  ..8.?.@.`..T_ ..
 80010 ffffff17 01000090 21000091 01411cd5  ........!....A..
 80020 0000b0d2 00007fb2 00111cd5 02000090  ................
 80030 42002091 02c018d5 827880d2 02401cd5  B. ......x...@..
 80040 62000010 22401cd5 e0039fd6 3f000091  b..."@......?...
 80050 010000b0 21800691 62490018 82000034  ....!...bI.....4
 80060 3f8400f8 42040051 a2ffff35 91030094  ?...B..Q...5....
 80070 e7ffff17 e0039fd6 e007bfa9 e20fbfa9  ................
 80080 e417bfa9 e61fbfa9 e827bfa9 ea2fbfa9  .........'.../..
 80090 ec37bfa9 ee3fbfa9 f047bfa9 f24fbfa9  .7...?...G...O..
 800a0 f457bfa9 f65fbfa9 f867bfa9 fa6fbfa9  .W..._...g...o..
 800b0 fc77bfa9 fe0f1ff8 16040094 fe0741f8  .w............A.
 800c0 fc77c1a8 fa6fc1a8 f867c1a8 f65fc1a8  .w...o...g..._..
 800d0 f457c1a8 f24fc1a8 f047c1a8 ee3fc1a8  .W...O...G...?..
 800e0 ec37c1a8 ea2fc1a8 e827c1a8 e61fc1a8  .7.../...'......
 800f0 e417c1a8 e20fc1a8 e007c1a8 e0039fd6  ................
 80100 e0039fd6 e0039fd6 1f2003d5 1f2003d5  ......... ... ..
 80110 1f2003d5 1f2003d5 1f2003d5 1f2003d5  . ... ... ... ..
 80120 1f2003d5 1f2003d5 1f2003d5 1f2003d5  . ... ... ... ..
 80130 1f2003d5 1f2003d5 1f2003d5 1f2003d5  . ... ... ... ..
 80140 1f2003d5 1f2003d5 1f2003d5 1f2003d5  . ... ... ... ..
 80150 1f2003d5 1f2003d5 1f2003d5 1f2003d5  . ... ... ... ..
 80160 1f2003d5 1f2003d5 1f2003d5 1f2003d5  . ... ... ... ..
 80170 1f2003d5 1f2003d5 1f2003d5 1f2003d5  . ... ... ... ..
 80180 1f2003d5 1f2003d5 1f2003d5 1f2003d5  . ... ... ... ..
 80190 1f2003d5 1f2003d5 1f2003d5 1f2003d5  . ... ... ... ..
 801a0 1f2003d5 1f2003d5 1f2003d5 1f2003d5  . ... ... ... ..
 801b0 1f2003d5 1f2003d5 1f2003d5 1f2003d5  . ... ... ... ..
 801c0 1f2003d5 1f2003d5 1f2003d5 1f2003d5  . ... ... ... ..
 801d0 1f2003d5 1f2003d5 1f2003d5 1f2003d5  . ... ... ... ..
 801e0 1f2003d5 1f2003d5 1f2003d5 1f2003d5  . ... ... ... ..
 801f0 1f2003d5 1f2003d5 1f2003d5 1f2003d5  . ... ... ... ..
 80200 1f2003d5 1f2003d5 1f2003d5 1f2003d5  . ... ... ... ..
 80210 1f2003d5 1f2003d5 1f2003d5 1f2003d5  . ... ... ... ..
 80220 1f2003d5 1f2003d5 1f2003d5 1f2003d5  . ... ... ... ..
 80230 1f2003d5 1f2003d5 1f2003d5 1f2003d5  . ... ... ... ..
 80240 1f2003d5 1f2003d5 1f2003d5 1f2003d5  . ... ... ... ..
 80250 1f2003d5 1f2003d5 1f2003d5 1f2003d5  . ... ... ... ..
 80260 1f2003d5 1f2003d5 1f2003d5 1f2003d5  . ... ... ... ..
 80270 1f2003d5 1f2003d5 1f2003d5 1f2003d5  . ... ... ... ..
 80280 1f2003d5 1f2003d5 1f2003d5 1f2003d5  . ... ... ... ..
 80290 1f2003d5 1f2003d5 1f2003d5 1f2003d5  . ... ... ... ..
 802a0 1f2003d5 1f2003d5 1f2003d5 1f2003d5  . ... ... ... ..
 802b0 1f2003d5 1f2003d5 1f2003d5 1f2003d5  . ... ... ... ..
 802c0 1f2003d5 1f2003d5 1f2003d5 1f2003d5  . ... ... ... ..
 802d0 1f2003d5 1f2003d5 1f2003d5 1f2003d5  . ... ... ... ..
 802e0 1f2003d5 1f2003d5 1f2003d5 1f2003d5  . ... ... ... ..
 802f0 1f2003d5 1f2003d5 1f2003d5 1f2003d5  . ... ... ... ..
 80300 1f2003d5 1f2003d5 1f2003d5 1f2003d5  . ... ... ... ..
 80310 1f2003d5 1f2003d5 1f2003d5 1f2003d5  . ... ... ... ..
 80320 1f2003d5 1f2003d5 1f2003d5 1f2003d5  . ... ... ... ..
 80330 1f2003d5 1f2003d5 1f2003d5 1f2003d5  . ... ... ... ..
 80340 1f2003d5 1f2003d5 1f2003d5 1f2003d5  . ... ... ... ..
 80350 1f2003d5 1f2003d5 1f2003d5 1f2003d5  . ... ... ... ..
 80360 1f2003d5 1f2003d5 1f2003d5 1f2003d5  . ... ... ... ..
 80370 1f2003d5 1f2003d5 1f2003d5 1f2003d5  . ... ... ... ..
 80380 1f2003d5 1f2003d5 1f2003d5 1f2003d5  . ... ... ... ..
 80390 1f2003d5 1f2003d5 1f2003d5 1f2003d5  . ... ... ... ..
 803a0 1f2003d5 1f2003d5 1f2003d5 1f2003d5  . ... ... ... ..
 803b0 1f2003d5 1f2003d5 1f2003d5 1f2003d5  . ... ... ... ..
 803c0 1f2003d5 1f2003d5 1f2003d5 1f2003d5  . ... ... ... ..
 803d0 1f2003d5 1f2003d5 1f2003d5 1f2003d5  . ... ... ... ..
 803e0 1f2003d5 1f2003d5 1f2003d5 1f2003d5  . ... ... ... ..
 803f0 1f2003d5 1f2003d5 1f2003d5 1f2003d5  . ... ... ... ..
 80400 1f2003d5 1f2003d5 1f2003d5 1f2003d5  . ... ... ... ..
 80410 1f2003d5 1f2003d5 1f2003d5 1f2003d5  . ... ... ... ..
 80420 1f2003d5 1f2003d5 1f2003d5 1f2003d5  . ... ... ... ..
 80430 1f2003d5 1f2003d5 1f2003d5 1f2003d5  . ... ... ... ..
 80440 1f2003d5 1f2003d5 1f2003d5 1f2003d5  . ... ... ... ..
 80450 1f2003d5 1f2003d5 1f2003d5 1f2003d5  . ... ... ... ..
 80460 1f2003d5 1f2003d5 1f2003d5 1f2003d5  . ... ... ... ..
 80470 1f2003d5 1f2003d5 1f2003d5 1f2003d5  . ... ... ... ..
 80480 1f2003d5 1f2003d5 1f2003d5 1f2003d5  . ... ... ... ..
 80490 1f2003d5 1f2003d5 1f2003d5 1f2003d5  . ... ... ... ..
 804a0 1f2003d5 1f2003d5 1f2003d5 1f2003d5  . ... ... ... ..
 804b0 1f2003d5 1f2003d5 1f2003d5 1f2003d5  . ... ... ... ..
 804c0 1f2003d5 1f2003d5 1f2003d5 1f2003d5  . ... ... ... ..
 804d0 1f2003d5 1f2003d5 1f2003d5 1f2003d5  . ... ... ... ..
 804e0 1f2003d5 1f2003d5 1f2003d5 1f2003d5  . ... ... ... ..
 804f0 1f2003d5 1f2003d5 1f2003d5 1f2003d5  . ... ... ... ..
 80500 1f2003d5 1f2003d5 1f2003d5 1f2003d5  . ... ... ... ..
 80510 1f2003d5 1f2003d5 1f2003d5 1f2003d5  . ... ... ... ..
 80520 1f2003d5 1f2003d5 1f2003d5 1f2003d5  . ... ... ... ..
 80530 1f2003d5 1f2003d5 1f2003d5 1f2003d5  . ... ... ... ..
 80540 1f2003d5 1f2003d5 1f2003d5 1f2003d5  . ... ... ... ..
 80550 1f2003d5 1f2003d5 1f2003d5 1f2003d5  . ... ... ... ..
 80560 1f2003d5 1f2003d5 1f2003d5 1f2003d5  . ... ... ... ..
 80570 1f2003d5 1f2003d5 1f2003d5 1f2003d5  . ... ... ... ..
 80580 1f2003d5 1f2003d5 1f2003d5 1f2003d5  . ... ... ... ..
 80590 1f2003d5 1f2003d5 1f2003d5 1f2003d5  . ... ... ... ..
 805a0 1f2003d5 1f2003d5 1f2003d5 1f2003d5  . ... ... ... ..
 805b0 1f2003d5 1f2003d5 1f2003d5 1f2003d5  . ... ... ... ..
 805c0 1f2003d5 1f2003d5 1f2003d5 1f2003d5  . ... ... ... ..
 805d0 1f2003d5 1f2003d5 1f2003d5 1f2003d5  . ... ... ... ..
 805e0 1f2003d5 1f2003d5 1f2003d5 1f2003d5  . ... ... ... ..
 805f0 1f2003d5 1f2003d5 1f2003d5 1f2003d5  . ... ... ... ..
 80600 1f2003d5 1f2003d5 1f2003d5 1f2003d5  . ... ... ... ..
 80610 1f2003d5 1f2003d5 1f2003d5 1f2003d5  . ... ... ... ..
 80620 1f2003d5 1f2003d5 1f2003d5 1f2003d5  . ... ... ... ..
 80630 1f2003d5 1f2003d5 1f2003d5 1f2003d5  . ... ... ... ..
 80640 1f2003d5 1f2003d5 1f2003d5 1f2003d5  . ... ... ... ..
 80650 1f2003d5 1f2003d5 1f2003d5 1f2003d5  . ... ... ... ..
 80660 1f2003d5 1f2003d5 1f2003d5 1f2003d5  . ... ... ... ..
 80670 1f2003d5 1f2003d5 1f2003d5 1f2003d5  . ... ... ... ..
 80680 1f2003d5 1f2003d5 1f2003d5 1f2003d5  . ... ... ... ..
 80690 1f2003d5 1f2003d5 1f2003d5 1f2003d5  . ... ... ... ..
 806a0 1f2003d5 1f2003d5 1f2003d5 1f2003d5  . ... ... ... ..
 806b0 1f2003d5 1f2003d5 1f2003d5 1f2003d5  . ... ... ... ..
 806c0 1f2003d5 1f2003d5 1f2003d5 1f2003d5  . ... ... ... ..
 806d0 1f2003d5 1f2003d5 1f2003d5 1f2003d5  . ... ... ... ..
 806e0 1f2003d5 1f2003d5 1f2003d5 1f2003d5  . ... ... ... ..
 806f0 1f2003d5 1f2003d5 1f2003d5 1f2003d5  . ... ... ... ..
 80700 1f2003d5 1f2003d5 1f2003d5 1f2003d5  . ... ... ... ..
 80710 1f2003d5 1f2003d5 1f2003d5 1f2003d5  . ... ... ... ..
 80720 1f2003d5 1f2003d5 1f2003d5 1f2003d5  . ... ... ... ..
 80730 1f2003d5 1f2003d5 1f2003d5 1f2003d5  . ... ... ... ..
 80740 1f2003d5 1f2003d5 1f2003d5 1f2003d5  . ... ... ... ..
 80750 1f2003d5 1f2003d5 1f2003d5 1f2003d5  . ... ... ... ..
 80760 1f2003d5 1f2003d5 1f2003d5 1f2003d5  . ... ... ... ..
 80770 1f2003d5 1f2003d5 1f2003d5 1f2003d5  . ... ... ... ..
 80780 1f2003d5 1f2003d5 1f2003d5 1f2003d5  . ... ... ... ..
 80790 1f2003d5 1f2003d5 1f2003d5 1f2003d5  . ... ... ... ..
 807a0 1f2003d5 1f2003d5 1f2003d5 1f2003d5  . ... ... ... ..
 807b0 1f2003d5 1f2003d5 1f2003d5 1f2003d5  . ... ... ... ..
 807c0 1f2003d5 1f2003d5 1f2003d5 1f2003d5  . ... ... ... ..
 807d0 1f2003d5 1f2003d5 1f2003d5 1f2003d5  . ... ... ... ..
 807e0 1f2003d5 1f2003d5 1f2003d5 1f2003d5  . ... ... ... ..
 807f0 1f2003d5 1f2003d5 1f2003d5 1f2003d5  . ... ... ... ..
 80800 1dfeff17 1f2003d5 1f2003d5 1f2003d5  ..... ... ... ..
 80810 1f2003d5 1f2003d5 1f2003d5 1f2003d5  . ... ... ... ..
 80820 1f2003d5 1f2003d5 1f2003d5 1f2003d5  . ... ... ... ..
 80830 1f2003d5 1f2003d5 1f2003d5 1f2003d5  . ... ... ... ..
 80840 1f2003d5 1f2003d5 1f2003d5 1f2003d5  . ... ... ... ..
 80850 1f2003d5 1f2003d5 1f2003d5 1f2003d5  . ... ... ... ..
 80860 1f2003d5 1f2003d5 1f2003d5 1f2003d5  . ... ... ... ..
 80870 1f2003d5 1f2003d5 1f2003d5 1f2003d5  . ... ... ... ..
 80880 fefdff17 1f2003d5 1f2003d5 1f2003d5  ..... ... ... ..
 80890 1f2003d5 1f2003d5 1f2003d5 1f2003d5  . ... ... ... ..
 808a0 1f2003d5 1f2003d5 1f2003d5 1f2003d5  . ... ... ... ..
 808b0 1f2003d5 1f2003d5 1f2003d5 1f2003d5  . ... ... ... ..
 808c0 1f2003d5 1f2003d5 1f2003d5 1f2003d5  . ... ... ... ..
 808d0 1f2003d5 1f2003d5 1f2003d5 1f2003d5  . ... ... ... ..
 808e0 1f2003d5 1f2003d5 1f2003d5 1f2003d5  . ... ... ... ..
 808f0 1f2003d5 1f2003d5 1f2003d5 1f2003d5  . ... ... ... ..
 80900 00feff17 1f2003d5 1f2003d5 1f2003d5  ..... ... ... ..
 80910 1f2003d5 1f2003d5 1f2003d5 1f2003d5  . ... ... ... ..
 80920 1f2003d5 1f2003d5 1f2003d5 1f2003d5  . ... ... ... ..
 80930 1f2003d5 1f2003d5 1f2003d5 1f2003d5  . ... ... ... ..
 80940 1f2003d5 1f2003d5 1f2003d5 1f2003d5  . ... ... ... ..
 80950 1f2003d5 1f2003d5 1f2003d5 1f2003d5  . ... ... ... ..
 80960 1f2003d5 1f2003d5 1f2003d5 1f2003d5  . ... ... ... ..
 80970 1f2003d5 1f2003d5 1f2003d5 1f2003d5  . ... ... ... ..
 80980 e1fdff17 00000000 404238d5 00fc42d3  ........@B8...B.
 80990 00044092 c0035fd6 004238d5 c0035fd6  ..@..._..B8..._.
 809a0 00423bd5 00fc5cd3 000c4092 c0035fd6  .B;...\...@..._.
 809b0 20423bd5 00fc46d3 000c4092 c0035fd6   B;...F...@..._.
 809c0 ff4f03d5 c0035fd6 df4f03d5 c0035fd6  .O...._..O...._.
 809d0 ff4203d5 c0035fd6 df4203d5 c0035fd6  .B...._..B...._.
 809e0 ff4103d5 c0035fd6 df4103d5 c0035fd6  .A...._..A...._.
 809f0 820080d2 831280d2 02e4a7f2 03e4a7f2  ................
 80a00 04008452 c0128052 410040b9 2400a072  ...R...RA.@.$..r
 80a10 21640e12 2100042a 410000b9 7f0000b9  !d..!..*A.......
 80a20 1f2003d5 00040071 c1ffff54 011380d2  . .....q...T....
 80a30 02009852 01e4a7f2 c0128052 220000b9  ...R.......R"...
 80a40 1f2003d5 00040071 c1ffff54 001380d2  . .....q...T....
 80a50 83008ad2 00e4a7f2 23e4a7f2 89088ad2  ........#.......
 80a60 010c8ad2 1f0000b9 29e4a7f2 21e4a7f2  ........)...!...
 80a70 88098ad2 600040b9 28e4a7f2 070a8ad2  ....`.@.(.......
 80a80 05098ad2 00000032 600000b9 3f0100b9  .......2`...?...
 80a90 27e4a7f2 3f0000b9 62008052 25e4a7f2  '...?...b..R%...
 80aa0 020100b9 040d8ad2 ff0000b9 24e4a7f2  ............$...
 80ab0 c6188052 a60000b9 c0218052 800000b9  ...R.....!.R....
 80ac0 220000b9 c0035fd6 820a8ad2 22e4a7f2  "....._....."...
 80ad0 1f2003d5 410040b9 c1ff2f36 01088ad2  . ..A.@.../6....
 80ae0 21e4a7f2 200000b9 c0035fd6 1f2003d5  !... ....._.. ..
 80af0 810a8ad2 21e4a7f2 1f2003d5 200040b9  ....!.... .. .@.
 80b00 c0ff0736 00088ad2 41018052 20e4a7f2  ...6....A..R ...
 80b10 000040b9 001c0012 1f340071 0010811a  ..@......4.q....
 80b20 c0035fd6 1f2003d5 01004039 21020034  .._.. ....@9!..4
 80b30 820a8ad2 04088ad2 22e4a7f2 24e4a7f2  ........"...$...
 80b40 a5018052 1f2003d5 3f280071 40010054  ...R. ..?(.q@..T
 80b50 03144038 1f2003d5 1f2003d5 410040b9  ..@8. ... ..A.@.
 80b60 c1ff2f36 830000b9 01004039 e1feff35  ../6......@9...5
 80b70 c0035fd6 1f2003d5 410040b9 c1ff2f36  .._.. ..A.@.../6
 80b80 850000b9 f3ffff17 820a8ad2 06088ad2  ................
 80b90 83038052 22e4a7f2 26e4a7f2 1f2003d5  ...R"...&.... ..
 80ba0 0124c31a 210c0012 25dc0011 24c00011  .$..!...%...$...
 80bb0 3f280071 8430851a 1f2003d5 410040b9  ?(.q.0... ..A.@.
 80bc0 c1ff2f36 c40000b9 63100051 7f100031  ../6....c..Q...1
 80bd0 81feff54 c0035fd6 020180d2 831280d2  ...T.._.........
 80be0 02e4a7f2 03e4a7f2 c0128052 410040b9  ...........RA.@.
 80bf0 21701712 410000b9 7f0000b9 1f2003d5  !p..A........ ..
 80c00 1f2003d5 00040071 c1ffff54 011380d2  . .....q...T....
 80c10 0208a052 01e4a7f2 c0128052 220000b9  ...R.......R"...
 80c20 1f2003d5 00040071 c1ffff54 001380d2  . .....q...T....
 80c30 810980d2 00e4a7f2 01e4a7f2 824296d2  .............B..
 80c40 0302a052 1f0000b9 02e0a7f2 200040b9  ...R........ .@.
 80c50 00000a32 200000b9 430000b9 c0035fd6  ...2 ...C....._.
 80c60 020180d2 831280d2 02e4a7f2 03e4a7f2  ................
 80c70 c0128052 410040b9 21701412 410000b9  ...RA.@.!p..A...
 80c80 7f0000b9 1f2003d5 1f2003d5 00040071  ..... ... .....q
 80c90 c1ffff54 011380d2 0210a052 01e4a7f2  ...T.......R....
 80ca0 c0128052 220000b9 1f2003d5 00040071  ...R".... .....q
 80cb0 c1ffff54 001380d2 810980d2 00e4a7f2  ...T............
 80cc0 01e4a7f2 824296d2 0302a052 1f0000b9  .....B.....R....
 80cd0 02e0a7f2 200040b9 00000932 200000b9  .... .@....2 ...
 80ce0 430000b9 c0035fd6 02e4a7d2 831280d2  C....._.........
 80cf0 03e4a7f2 c0128052 410040b9 21701112  .......RA.@.!p..
 80d00 21001432 410000b9 7f0000b9 1f2003d5  !..2A........ ..
 80d10 1f2003d5 00040071 c1ffff54 011380d2  . .....q...T....
 80d20 02028052 01e4a7f2 c0128052 220000b9  ...R.......R"...
 80d30 1f2003d5 00040071 c1ffff54 001380d2  . .....q...T....
 80d40 00e4a7f2 1f0000b9 c0035fd6 1f2003d5  .........._.. ..
 80d50 800380d2 01028052 00e4a7f2 010000b9  .......R........
 80d60 c0035fd6 1f2003d5 000580d2 01028052  .._.. .........R
 80d70 00e4a7f2 010000b9 c0035fd6 1f2003d5  .........._.. ..
 80d80 820080d2 831280d2 02e4a7f2 03e4a7f2  ................
 80d90 c0128052 410040b9 21700812 21000b32  ...RA.@.!p..!..2
 80da0 410000b9 7f0000b9 1f2003d5 00040071  A........ .....q
 80db0 c1ffff54 011380d2 4200a052 01e4a7f2  ...T....B..R....
 80dc0 c0128052 220000b9 1f2003d5 00040071  ...R".... .....q
 80dd0 c1ffff54 001380d2 00e4a7f2 1f0000b9  ...T............
 80de0 c0035fd6 1f2003d5 800380d2 4100a052  .._.. ......A..R
 80df0 00e4a7f2 010000b9 c0035fd6 1f2003d5  .........._.. ..
 80e00 000580d2 4100a052 00e4a7f2 010000b9  ....A..R........
 80e10 c0035fd6 1f2003d5 020180d2 831280d2  .._.. ..........
 80e20 02e4a7f2 03e4a7f2 c0128052 410040b9  ...........RA.@.
 80e30 21700812 21000b32 410000b9 7f0000b9  !p..!..2A.......
 80e40 1f2003d5 00040071 c1ffff54 011380d2  . .....q...T....
 80e50 0200a152 01e4a7f2 c0128052 220000b9  ...R.......R"...
 80e60 1f2003d5 00040071 c1ffff54 001380d2  . .....q...T....
 80e70 00e4a7f2 1f0000b9 c0035fd6 1f2003d5  .........._.. ..
 80e80 800380d2 0100a152 00e4a7f2 010000b9  .......R........
 80e90 c0035fd6 1f2003d5 000580d2 0100a152  .._.. .........R
 80ea0 00e4a7f2 010000b9 c0035fd6 00000000  .........._.....
 80eb0 fd7bbba9 fd030091 f35301a9 130000b0  .{.......S......
 80ec0 f55b02a9 f76303a9 f96b04a9 7fa201b9  .[...c...k......
 80ed0 c8feff97 63ffff97 40ffff97 02e4a7d2  ....c...@.......
 80ee0 831280d2 03e4a7f2 c1128052 400040b9  ...........R@.@.
 80ef0 00701112 00001432 400000b9 7f0000b9  .p.....2@.......
 80f00 1f2003d5 21040071 c1ffff54 011380d2  . ..!..q...T....
 80f10 02028052 01e4a7f2 c0128052 220000b9  ...R.......R"...
 80f20 1f2003d5 00040071 c1ffff54 001380d2  . .....q...T....
 80f30 820080d2 00e4a7f2 02e4a7f2 831280d2  ................
 80f40 c1128052 1f0000b9 03e4a7f2 400040b9  ...R........@.@.
 80f50 00700812 00000b32 400000b9 7f0000b9  .p.....2@.......
 80f60 1f2003d5 21040071 c1ffff54 011380d2  . ..!..q...T....
 80f70 4200a052 01e4a7f2 c0128052 220000b9  B..R.......R"...
 80f80 1f2003d5 00040071 c1ffff54 001380d2  . .....q...T....
 80f90 020180d2 00e4a7f2 02e4a7f2 831280d2  ................
 80fa0 c1128052 1f0000b9 03e4a7f2 400040b9  ...R........@.@.
 80fb0 00700812 00000b32 400000b9 7f0000b9  .p.....2@.......
 80fc0 1f2003d5 21040071 c1ffff54 011380d2  . ..!..q...T....
 80fd0 0200a152 01e4a7f2 c0128052 220000b9  ...R.......R"...
 80fe0 1f2003d5 00040071 c1ffff54 001380d2  . .....q...T....
 80ff0 9a0380d2 00e4a7f2 190580d2 73820691  ............s...
 81000 15000090 1f0000b9 14000090 1ae4a7f2  ................
 81010 19e4a7f2 6ffeff97 600240b9 b8020691  ....o...`.@.....
 81020 97420691 16028052 80030034 1f040071  .B.....R...4...q
 81030 c1ffff54 0100a152 00febf12 410300b9  ...T...R....A...
 81040 1f2003d5 00040071 c1ffff54 0000a152  . .....q...T...R
 81050 200300b9 4100a052 00febf12 410300b9   ...A..R....A...
 81060 1f2003d5 00040071 c1ffff54 4000a052  . .....q...T@..R
 81070 200300b9 01028052 00febf12 410300b9   ......R....A...
 81080 1f2003d5 00040071 c1ffff54 00028052  . .....q...T...R
 81090 200300b9 e1ffff17 560300b9 e00318aa   .......V.......
 810a0 a2feff97 00fcbf12 1f2003d5 00040071  ......... .....q
 810b0 c1ffff54 360300b9 e00317aa 9bfeff97  ...T6...........
 810c0 4100a052 00fcbf12 410300b9 1f2003d5  A..R....A.... ..
 810d0 1f2003d5 00040071 c1ffff54 4000a052  . .....q...T@..R
 810e0 200300b9 0100a152 00fcbf12 410300b9   ......R....A...
 810f0 1f2003d5 00040071 c1ffff54 0000a152  . .....q...T...R
 81100 200300b9 600240b9 c9ffff17 00000000   ...`.@.........
 81110 004196d2 00e0a7f2 000040b9 1f004471  .A........@...Dq
 81120 40000054 c0035fd6 000880d2 00e4a7f2  @..T.._.........
 81130 010040b9 3f005071 60010054 010040b9  ..@.?.Pq`..T..@.
 81140 3f006071 01ffff54 010000b9 00000090  ?.`q...T........
 81150 01a041b9 3f040071 61feff54 1fa001b9  ..A.?..qa..T....
 81160 c0035fd6 010000b9 00000090 01a041b9  .._...........A.
 81170 a1fdff35 21008052 01a001b9 c0035fd6  ...5!..R......_.
Contents of section .rodata:
 81180 66697273 74204f4e 0a000000 00000000  first ON........
 81190 66697273 74204f46 460a0000 00000000  first OFF.......

Disassembly of section .text:

0000000000080000 <_start>:
   80000:	d53800a1 	mrs	x1, mpidr_el1
   80004:	f240043f 	tst	x1, #0x3
   80008:	54000060 	b.eq	80014 <core_zero>  // b.none

000000000008000c <loop>:
   8000c:	d503205f 	wfe
   80010:	17ffffff 	b	8000c <loop>

0000000000080014 <core_zero>:
   80014:	90000001 	adrp	x1, 80000 <_start>
   80018:	91000021 	add	x1, x1, #0x0
   8001c:	d51c4101 	msr	sp_el1, x1
   80020:	d2b00000 	mov	x0, #0x80000000            	// #2147483648
   80024:	b27f0000 	orr	x0, x0, #0x2
   80028:	d51c1100 	msr	hcr_el2, x0
   8002c:	90000002 	adrp	x2, 80000 <_start>
   80030:	91200042 	add	x2, x2, #0x800
   80034:	d518c002 	msr	vbar_el1, x2
   80038:	d2807882 	mov	x2, #0x3c4                 	// #964
   8003c:	d51c4002 	msr	spsr_el2, x2
   80040:	10000062 	adr	x2, 8004c <AtEL1>
   80044:	d51c4022 	msr	elr_el2, x2
   80048:	d69f03e0 	eret

000000000008004c <AtEL1>:
   8004c:	9100003f 	mov	sp, x1
   80050:	b0000001 	adrp	x1, 81000 <main+0x150>
   80054:	91068021 	add	x1, x1, #0x1a0
   80058:	18004962 	ldr	w2, 80984 <_vectors+0x184>

000000000008005c <top>:
   8005c:	34000082 	cbz	w2, 8006c <endloop>
   80060:	f800843f 	str	xzr, [x1], #8
   80064:	51000442 	sub	w2, w2, #0x1
   80068:	35ffffa2 	cbnz	w2, 8005c <top>

000000000008006c <endloop>:
   8006c:	94000391 	bl	80eb0 <main>
   80070:	17ffffe7 	b	8000c <loop>

0000000000080074 <_synch_handler>:
   80074:	d69f03e0 	eret

0000000000080078 <_IRQ_handler>:
   80078:	a9bf07e0 	stp	x0, x1, [sp, #-16]!
   8007c:	a9bf0fe2 	stp	x2, x3, [sp, #-16]!
   80080:	a9bf17e4 	stp	x4, x5, [sp, #-16]!
   80084:	a9bf1fe6 	stp	x6, x7, [sp, #-16]!
   80088:	a9bf27e8 	stp	x8, x9, [sp, #-16]!
   8008c:	a9bf2fea 	stp	x10, x11, [sp, #-16]!
   80090:	a9bf37ec 	stp	x12, x13, [sp, #-16]!
   80094:	a9bf3fee 	stp	x14, x15, [sp, #-16]!
   80098:	a9bf47f0 	stp	x16, x17, [sp, #-16]!
   8009c:	a9bf4ff2 	stp	x18, x19, [sp, #-16]!
   800a0:	a9bf57f4 	stp	x20, x21, [sp, #-16]!
   800a4:	a9bf5ff6 	stp	x22, x23, [sp, #-16]!
   800a8:	a9bf67f8 	stp	x24, x25, [sp, #-16]!
   800ac:	a9bf6ffa 	stp	x26, x27, [sp, #-16]!
   800b0:	a9bf77fc 	stp	x28, x29, [sp, #-16]!
   800b4:	f81f0ffe 	str	x30, [sp, #-16]!
   800b8:	94000416 	bl	81110 <IRQ_handler>
   800bc:	f84107fe 	ldr	x30, [sp], #16
   800c0:	a8c177fc 	ldp	x28, x29, [sp], #16
   800c4:	a8c16ffa 	ldp	x26, x27, [sp], #16
   800c8:	a8c167f8 	ldp	x24, x25, [sp], #16
   800cc:	a8c15ff6 	ldp	x22, x23, [sp], #16
   800d0:	a8c157f4 	ldp	x20, x21, [sp], #16
   800d4:	a8c14ff2 	ldp	x18, x19, [sp], #16
   800d8:	a8c147f0 	ldp	x16, x17, [sp], #16
   800dc:	a8c13fee 	ldp	x14, x15, [sp], #16
   800e0:	a8c137ec 	ldp	x12, x13, [sp], #16
   800e4:	a8c12fea 	ldp	x10, x11, [sp], #16
   800e8:	a8c127e8 	ldp	x8, x9, [sp], #16
   800ec:	a8c11fe6 	ldp	x6, x7, [sp], #16
   800f0:	a8c117e4 	ldp	x4, x5, [sp], #16
   800f4:	a8c10fe2 	ldp	x2, x3, [sp], #16
   800f8:	a8c107e0 	ldp	x0, x1, [sp], #16
   800fc:	d69f03e0 	eret

0000000000080100 <_FIQ_handler>:
   80100:	d69f03e0 	eret

0000000000080104 <_SError_handler>:
   80104:	d69f03e0 	eret
   80108:	d503201f 	nop
   8010c:	d503201f 	nop
   80110:	d503201f 	nop
   80114:	d503201f 	nop
   80118:	d503201f 	nop
   8011c:	d503201f 	nop
   80120:	d503201f 	nop
   80124:	d503201f 	nop
   80128:	d503201f 	nop
   8012c:	d503201f 	nop
   80130:	d503201f 	nop
   80134:	d503201f 	nop
   80138:	d503201f 	nop
   8013c:	d503201f 	nop
   80140:	d503201f 	nop
   80144:	d503201f 	nop
   80148:	d503201f 	nop
   8014c:	d503201f 	nop
   80150:	d503201f 	nop
   80154:	d503201f 	nop
   80158:	d503201f 	nop
   8015c:	d503201f 	nop
   80160:	d503201f 	nop
   80164:	d503201f 	nop
   80168:	d503201f 	nop
   8016c:	d503201f 	nop
   80170:	d503201f 	nop
   80174:	d503201f 	nop
   80178:	d503201f 	nop
   8017c:	d503201f 	nop
   80180:	d503201f 	nop
   80184:	d503201f 	nop
   80188:	d503201f 	nop
   8018c:	d503201f 	nop
   80190:	d503201f 	nop
   80194:	d503201f 	nop
   80198:	d503201f 	nop
   8019c:	d503201f 	nop
   801a0:	d503201f 	nop
   801a4:	d503201f 	nop
   801a8:	d503201f 	nop
   801ac:	d503201f 	nop
   801b0:	d503201f 	nop
   801b4:	d503201f 	nop
   801b8:	d503201f 	nop
   801bc:	d503201f 	nop
   801c0:	d503201f 	nop
   801c4:	d503201f 	nop
   801c8:	d503201f 	nop
   801cc:	d503201f 	nop
   801d0:	d503201f 	nop
   801d4:	d503201f 	nop
   801d8:	d503201f 	nop
   801dc:	d503201f 	nop
   801e0:	d503201f 	nop
   801e4:	d503201f 	nop
   801e8:	d503201f 	nop
   801ec:	d503201f 	nop
   801f0:	d503201f 	nop
   801f4:	d503201f 	nop
   801f8:	d503201f 	nop
   801fc:	d503201f 	nop
   80200:	d503201f 	nop
   80204:	d503201f 	nop
   80208:	d503201f 	nop
   8020c:	d503201f 	nop
   80210:	d503201f 	nop
   80214:	d503201f 	nop
   80218:	d503201f 	nop
   8021c:	d503201f 	nop
   80220:	d503201f 	nop
   80224:	d503201f 	nop
   80228:	d503201f 	nop
   8022c:	d503201f 	nop
   80230:	d503201f 	nop
   80234:	d503201f 	nop
   80238:	d503201f 	nop
   8023c:	d503201f 	nop
   80240:	d503201f 	nop
   80244:	d503201f 	nop
   80248:	d503201f 	nop
   8024c:	d503201f 	nop
   80250:	d503201f 	nop
   80254:	d503201f 	nop
   80258:	d503201f 	nop
   8025c:	d503201f 	nop
   80260:	d503201f 	nop
   80264:	d503201f 	nop
   80268:	d503201f 	nop
   8026c:	d503201f 	nop
   80270:	d503201f 	nop
   80274:	d503201f 	nop
   80278:	d503201f 	nop
   8027c:	d503201f 	nop
   80280:	d503201f 	nop
   80284:	d503201f 	nop
   80288:	d503201f 	nop
   8028c:	d503201f 	nop
   80290:	d503201f 	nop
   80294:	d503201f 	nop
   80298:	d503201f 	nop
   8029c:	d503201f 	nop
   802a0:	d503201f 	nop
   802a4:	d503201f 	nop
   802a8:	d503201f 	nop
   802ac:	d503201f 	nop
   802b0:	d503201f 	nop
   802b4:	d503201f 	nop
   802b8:	d503201f 	nop
   802bc:	d503201f 	nop
   802c0:	d503201f 	nop
   802c4:	d503201f 	nop
   802c8:	d503201f 	nop
   802cc:	d503201f 	nop
   802d0:	d503201f 	nop
   802d4:	d503201f 	nop
   802d8:	d503201f 	nop
   802dc:	d503201f 	nop
   802e0:	d503201f 	nop
   802e4:	d503201f 	nop
   802e8:	d503201f 	nop
   802ec:	d503201f 	nop
   802f0:	d503201f 	nop
   802f4:	d503201f 	nop
   802f8:	d503201f 	nop
   802fc:	d503201f 	nop
   80300:	d503201f 	nop
   80304:	d503201f 	nop
   80308:	d503201f 	nop
   8030c:	d503201f 	nop
   80310:	d503201f 	nop
   80314:	d503201f 	nop
   80318:	d503201f 	nop
   8031c:	d503201f 	nop
   80320:	d503201f 	nop
   80324:	d503201f 	nop
   80328:	d503201f 	nop
   8032c:	d503201f 	nop
   80330:	d503201f 	nop
   80334:	d503201f 	nop
   80338:	d503201f 	nop
   8033c:	d503201f 	nop
   80340:	d503201f 	nop
   80344:	d503201f 	nop
   80348:	d503201f 	nop
   8034c:	d503201f 	nop
   80350:	d503201f 	nop
   80354:	d503201f 	nop
   80358:	d503201f 	nop
   8035c:	d503201f 	nop
   80360:	d503201f 	nop
   80364:	d503201f 	nop
   80368:	d503201f 	nop
   8036c:	d503201f 	nop
   80370:	d503201f 	nop
   80374:	d503201f 	nop
   80378:	d503201f 	nop
   8037c:	d503201f 	nop
   80380:	d503201f 	nop
   80384:	d503201f 	nop
   80388:	d503201f 	nop
   8038c:	d503201f 	nop
   80390:	d503201f 	nop
   80394:	d503201f 	nop
   80398:	d503201f 	nop
   8039c:	d503201f 	nop
   803a0:	d503201f 	nop
   803a4:	d503201f 	nop
   803a8:	d503201f 	nop
   803ac:	d503201f 	nop
   803b0:	d503201f 	nop
   803b4:	d503201f 	nop
   803b8:	d503201f 	nop
   803bc:	d503201f 	nop
   803c0:	d503201f 	nop
   803c4:	d503201f 	nop
   803c8:	d503201f 	nop
   803cc:	d503201f 	nop
   803d0:	d503201f 	nop
   803d4:	d503201f 	nop
   803d8:	d503201f 	nop
   803dc:	d503201f 	nop
   803e0:	d503201f 	nop
   803e4:	d503201f 	nop
   803e8:	d503201f 	nop
   803ec:	d503201f 	nop
   803f0:	d503201f 	nop
   803f4:	d503201f 	nop
   803f8:	d503201f 	nop
   803fc:	d503201f 	nop
   80400:	d503201f 	nop
   80404:	d503201f 	nop
   80408:	d503201f 	nop
   8040c:	d503201f 	nop
   80410:	d503201f 	nop
   80414:	d503201f 	nop
   80418:	d503201f 	nop
   8041c:	d503201f 	nop
   80420:	d503201f 	nop
   80424:	d503201f 	nop
   80428:	d503201f 	nop
   8042c:	d503201f 	nop
   80430:	d503201f 	nop
   80434:	d503201f 	nop
   80438:	d503201f 	nop
   8043c:	d503201f 	nop
   80440:	d503201f 	nop
   80444:	d503201f 	nop
   80448:	d503201f 	nop
   8044c:	d503201f 	nop
   80450:	d503201f 	nop
   80454:	d503201f 	nop
   80458:	d503201f 	nop
   8045c:	d503201f 	nop
   80460:	d503201f 	nop
   80464:	d503201f 	nop
   80468:	d503201f 	nop
   8046c:	d503201f 	nop
   80470:	d503201f 	nop
   80474:	d503201f 	nop
   80478:	d503201f 	nop
   8047c:	d503201f 	nop
   80480:	d503201f 	nop
   80484:	d503201f 	nop
   80488:	d503201f 	nop
   8048c:	d503201f 	nop
   80490:	d503201f 	nop
   80494:	d503201f 	nop
   80498:	d503201f 	nop
   8049c:	d503201f 	nop
   804a0:	d503201f 	nop
   804a4:	d503201f 	nop
   804a8:	d503201f 	nop
   804ac:	d503201f 	nop
   804b0:	d503201f 	nop
   804b4:	d503201f 	nop
   804b8:	d503201f 	nop
   804bc:	d503201f 	nop
   804c0:	d503201f 	nop
   804c4:	d503201f 	nop
   804c8:	d503201f 	nop
   804cc:	d503201f 	nop
   804d0:	d503201f 	nop
   804d4:	d503201f 	nop
   804d8:	d503201f 	nop
   804dc:	d503201f 	nop
   804e0:	d503201f 	nop
   804e4:	d503201f 	nop
   804e8:	d503201f 	nop
   804ec:	d503201f 	nop
   804f0:	d503201f 	nop
   804f4:	d503201f 	nop
   804f8:	d503201f 	nop
   804fc:	d503201f 	nop
   80500:	d503201f 	nop
   80504:	d503201f 	nop
   80508:	d503201f 	nop
   8050c:	d503201f 	nop
   80510:	d503201f 	nop
   80514:	d503201f 	nop
   80518:	d503201f 	nop
   8051c:	d503201f 	nop
   80520:	d503201f 	nop
   80524:	d503201f 	nop
   80528:	d503201f 	nop
   8052c:	d503201f 	nop
   80530:	d503201f 	nop
   80534:	d503201f 	nop
   80538:	d503201f 	nop
   8053c:	d503201f 	nop
   80540:	d503201f 	nop
   80544:	d503201f 	nop
   80548:	d503201f 	nop
   8054c:	d503201f 	nop
   80550:	d503201f 	nop
   80554:	d503201f 	nop
   80558:	d503201f 	nop
   8055c:	d503201f 	nop
   80560:	d503201f 	nop
   80564:	d503201f 	nop
   80568:	d503201f 	nop
   8056c:	d503201f 	nop
   80570:	d503201f 	nop
   80574:	d503201f 	nop
   80578:	d503201f 	nop
   8057c:	d503201f 	nop
   80580:	d503201f 	nop
   80584:	d503201f 	nop
   80588:	d503201f 	nop
   8058c:	d503201f 	nop
   80590:	d503201f 	nop
   80594:	d503201f 	nop
   80598:	d503201f 	nop
   8059c:	d503201f 	nop
   805a0:	d503201f 	nop
   805a4:	d503201f 	nop
   805a8:	d503201f 	nop
   805ac:	d503201f 	nop
   805b0:	d503201f 	nop
   805b4:	d503201f 	nop
   805b8:	d503201f 	nop
   805bc:	d503201f 	nop
   805c0:	d503201f 	nop
   805c4:	d503201f 	nop
   805c8:	d503201f 	nop
   805cc:	d503201f 	nop
   805d0:	d503201f 	nop
   805d4:	d503201f 	nop
   805d8:	d503201f 	nop
   805dc:	d503201f 	nop
   805e0:	d503201f 	nop
   805e4:	d503201f 	nop
   805e8:	d503201f 	nop
   805ec:	d503201f 	nop
   805f0:	d503201f 	nop
   805f4:	d503201f 	nop
   805f8:	d503201f 	nop
   805fc:	d503201f 	nop
   80600:	d503201f 	nop
   80604:	d503201f 	nop
   80608:	d503201f 	nop
   8060c:	d503201f 	nop
   80610:	d503201f 	nop
   80614:	d503201f 	nop
   80618:	d503201f 	nop
   8061c:	d503201f 	nop
   80620:	d503201f 	nop
   80624:	d503201f 	nop
   80628:	d503201f 	nop
   8062c:	d503201f 	nop
   80630:	d503201f 	nop
   80634:	d503201f 	nop
   80638:	d503201f 	nop
   8063c:	d503201f 	nop
   80640:	d503201f 	nop
   80644:	d503201f 	nop
   80648:	d503201f 	nop
   8064c:	d503201f 	nop
   80650:	d503201f 	nop
   80654:	d503201f 	nop
   80658:	d503201f 	nop
   8065c:	d503201f 	nop
   80660:	d503201f 	nop
   80664:	d503201f 	nop
   80668:	d503201f 	nop
   8066c:	d503201f 	nop
   80670:	d503201f 	nop
   80674:	d503201f 	nop
   80678:	d503201f 	nop
   8067c:	d503201f 	nop
   80680:	d503201f 	nop
   80684:	d503201f 	nop
   80688:	d503201f 	nop
   8068c:	d503201f 	nop
   80690:	d503201f 	nop
   80694:	d503201f 	nop
   80698:	d503201f 	nop
   8069c:	d503201f 	nop
   806a0:	d503201f 	nop
   806a4:	d503201f 	nop
   806a8:	d503201f 	nop
   806ac:	d503201f 	nop
   806b0:	d503201f 	nop
   806b4:	d503201f 	nop
   806b8:	d503201f 	nop
   806bc:	d503201f 	nop
   806c0:	d503201f 	nop
   806c4:	d503201f 	nop
   806c8:	d503201f 	nop
   806cc:	d503201f 	nop
   806d0:	d503201f 	nop
   806d4:	d503201f 	nop
   806d8:	d503201f 	nop
   806dc:	d503201f 	nop
   806e0:	d503201f 	nop
   806e4:	d503201f 	nop
   806e8:	d503201f 	nop
   806ec:	d503201f 	nop
   806f0:	d503201f 	nop
   806f4:	d503201f 	nop
   806f8:	d503201f 	nop
   806fc:	d503201f 	nop
   80700:	d503201f 	nop
   80704:	d503201f 	nop
   80708:	d503201f 	nop
   8070c:	d503201f 	nop
   80710:	d503201f 	nop
   80714:	d503201f 	nop
   80718:	d503201f 	nop
   8071c:	d503201f 	nop
   80720:	d503201f 	nop
   80724:	d503201f 	nop
   80728:	d503201f 	nop
   8072c:	d503201f 	nop
   80730:	d503201f 	nop
   80734:	d503201f 	nop
   80738:	d503201f 	nop
   8073c:	d503201f 	nop
   80740:	d503201f 	nop
   80744:	d503201f 	nop
   80748:	d503201f 	nop
   8074c:	d503201f 	nop
   80750:	d503201f 	nop
   80754:	d503201f 	nop
   80758:	d503201f 	nop
   8075c:	d503201f 	nop
   80760:	d503201f 	nop
   80764:	d503201f 	nop
   80768:	d503201f 	nop
   8076c:	d503201f 	nop
   80770:	d503201f 	nop
   80774:	d503201f 	nop
   80778:	d503201f 	nop
   8077c:	d503201f 	nop
   80780:	d503201f 	nop
   80784:	d503201f 	nop
   80788:	d503201f 	nop
   8078c:	d503201f 	nop
   80790:	d503201f 	nop
   80794:	d503201f 	nop
   80798:	d503201f 	nop
   8079c:	d503201f 	nop
   807a0:	d503201f 	nop
   807a4:	d503201f 	nop
   807a8:	d503201f 	nop
   807ac:	d503201f 	nop
   807b0:	d503201f 	nop
   807b4:	d503201f 	nop
   807b8:	d503201f 	nop
   807bc:	d503201f 	nop
   807c0:	d503201f 	nop
   807c4:	d503201f 	nop
   807c8:	d503201f 	nop
   807cc:	d503201f 	nop
   807d0:	d503201f 	nop
   807d4:	d503201f 	nop
   807d8:	d503201f 	nop
   807dc:	d503201f 	nop
   807e0:	d503201f 	nop
   807e4:	d503201f 	nop
   807e8:	d503201f 	nop
   807ec:	d503201f 	nop
   807f0:	d503201f 	nop
   807f4:	d503201f 	nop
   807f8:	d503201f 	nop
   807fc:	d503201f 	nop

0000000000080800 <_vectors>:
   80800:	17fffe1d 	b	80074 <_synch_handler>
   80804:	d503201f 	nop
   80808:	d503201f 	nop
   8080c:	d503201f 	nop
   80810:	d503201f 	nop
   80814:	d503201f 	nop
   80818:	d503201f 	nop
   8081c:	d503201f 	nop
   80820:	d503201f 	nop
   80824:	d503201f 	nop
   80828:	d503201f 	nop
   8082c:	d503201f 	nop
   80830:	d503201f 	nop
   80834:	d503201f 	nop
   80838:	d503201f 	nop
   8083c:	d503201f 	nop
   80840:	d503201f 	nop
   80844:	d503201f 	nop
   80848:	d503201f 	nop
   8084c:	d503201f 	nop
   80850:	d503201f 	nop
   80854:	d503201f 	nop
   80858:	d503201f 	nop
   8085c:	d503201f 	nop
   80860:	d503201f 	nop
   80864:	d503201f 	nop
   80868:	d503201f 	nop
   8086c:	d503201f 	nop
   80870:	d503201f 	nop
   80874:	d503201f 	nop
   80878:	d503201f 	nop
   8087c:	d503201f 	nop
   80880:	17fffdfe 	b	80078 <_IRQ_handler>
   80884:	d503201f 	nop
   80888:	d503201f 	nop
   8088c:	d503201f 	nop
   80890:	d503201f 	nop
   80894:	d503201f 	nop
   80898:	d503201f 	nop
   8089c:	d503201f 	nop
   808a0:	d503201f 	nop
   808a4:	d503201f 	nop
   808a8:	d503201f 	nop
   808ac:	d503201f 	nop
   808b0:	d503201f 	nop
   808b4:	d503201f 	nop
   808b8:	d503201f 	nop
   808bc:	d503201f 	nop
   808c0:	d503201f 	nop
   808c4:	d503201f 	nop
   808c8:	d503201f 	nop
   808cc:	d503201f 	nop
   808d0:	d503201f 	nop
   808d4:	d503201f 	nop
   808d8:	d503201f 	nop
   808dc:	d503201f 	nop
   808e0:	d503201f 	nop
   808e4:	d503201f 	nop
   808e8:	d503201f 	nop
   808ec:	d503201f 	nop
   808f0:	d503201f 	nop
   808f4:	d503201f 	nop
   808f8:	d503201f 	nop
   808fc:	d503201f 	nop
   80900:	17fffe00 	b	80100 <_FIQ_handler>
   80904:	d503201f 	nop
   80908:	d503201f 	nop
   8090c:	d503201f 	nop
   80910:	d503201f 	nop
   80914:	d503201f 	nop
   80918:	d503201f 	nop
   8091c:	d503201f 	nop
   80920:	d503201f 	nop
   80924:	d503201f 	nop
   80928:	d503201f 	nop
   8092c:	d503201f 	nop
   80930:	d503201f 	nop
   80934:	d503201f 	nop
   80938:	d503201f 	nop
   8093c:	d503201f 	nop
   80940:	d503201f 	nop
   80944:	d503201f 	nop
   80948:	d503201f 	nop
   8094c:	d503201f 	nop
   80950:	d503201f 	nop
   80954:	d503201f 	nop
   80958:	d503201f 	nop
   8095c:	d503201f 	nop
   80960:	d503201f 	nop
   80964:	d503201f 	nop
   80968:	d503201f 	nop
   8096c:	d503201f 	nop
   80970:	d503201f 	nop
   80974:	d503201f 	nop
   80978:	d503201f 	nop
   8097c:	d503201f 	nop
   80980:	17fffde1 	b	80104 <_SError_handler>
   80984:	00000000 	.word	0x00000000

0000000000080988 <getCurrentEL>:
   80988:	d5384240 	mrs	x0, currentel
   8098c:	d342fc00 	lsr	x0, x0, #2
   80990:	92400400 	and	x0, x0, #0x3
   80994:	d65f03c0 	ret

0000000000080998 <getSPSel>:
   80998:	d5384200 	mrs	x0, spsel
   8099c:	d65f03c0 	ret

00000000000809a0 <getNZCV>:
   809a0:	d53b4200 	mrs	x0, nzcv
   809a4:	d35cfc00 	lsr	x0, x0, #28
   809a8:	92400c00 	and	x0, x0, #0xf
   809ac:	d65f03c0 	ret

00000000000809b0 <getDAIF>:
   809b0:	d53b4220 	mrs	x0, daif
   809b4:	d346fc00 	lsr	x0, x0, #6
   809b8:	92400c00 	and	x0, x0, #0xf
   809bc:	d65f03c0 	ret

00000000000809c0 <enableDAIF>:
   809c0:	d5034fff 	msr	daifclr, #0xf
   809c4:	d65f03c0 	ret

00000000000809c8 <disableDAIF>:
   809c8:	d5034fdf 	msr	daifset, #0xf
   809cc:	d65f03c0 	ret

00000000000809d0 <enableIRQ>:
   809d0:	d50342ff 	msr	daifclr, #0x2
   809d4:	d65f03c0 	ret

00000000000809d8 <disableIRQ>:
   809d8:	d50342df 	msr	daifset, #0x2
   809dc:	d65f03c0 	ret

00000000000809e0 <enableFIQ>:
   809e0:	d50341ff 	msr	daifclr, #0x1
   809e4:	d65f03c0 	ret

00000000000809e8 <disableFIQ>:
   809e8:	d50341df 	msr	daifset, #0x1
   809ec:	d65f03c0 	ret

00000000000809f0 <uart_init>:
   809f0:	d2800082 	mov	x2, #0x4                   	// #4
   809f4:	d2801283 	mov	x3, #0x94                  	// #148
   809f8:	f2a7e402 	movk	x2, #0x3f20, lsl #16
   809fc:	f2a7e403 	movk	x3, #0x3f20, lsl #16
   80a00:	52840004 	mov	w4, #0x2000                	// #8192
   80a04:	528012c0 	mov	w0, #0x96                  	// #150
   80a08:	b9400041 	ldr	w1, [x2]
   80a0c:	72a00024 	movk	w4, #0x1, lsl #16
   80a10:	120e6421 	and	w1, w1, #0xfffc0fff
   80a14:	2a040021 	orr	w1, w1, w4
   80a18:	b9000041 	str	w1, [x2]
   80a1c:	b900007f 	str	wzr, [x3]
   80a20:	d503201f 	nop
   80a24:	71000400 	subs	w0, w0, #0x1
   80a28:	54ffffc1 	b.ne	80a20 <uart_init+0x30>  // b.any
   80a2c:	d2801301 	mov	x1, #0x98                  	// #152
   80a30:	52980002 	mov	w2, #0xc000                	// #49152
   80a34:	f2a7e401 	movk	x1, #0x3f20, lsl #16
   80a38:	528012c0 	mov	w0, #0x96                  	// #150
   80a3c:	b9000022 	str	w2, [x1]
   80a40:	d503201f 	nop
   80a44:	71000400 	subs	w0, w0, #0x1
   80a48:	54ffffc1 	b.ne	80a40 <uart_init+0x50>  // b.any
   80a4c:	d2801300 	mov	x0, #0x98                  	// #152
   80a50:	d28a0083 	mov	x3, #0x5004                	// #20484
   80a54:	f2a7e400 	movk	x0, #0x3f20, lsl #16
   80a58:	f2a7e423 	movk	x3, #0x3f21, lsl #16
   80a5c:	d28a0889 	mov	x9, #0x5044                	// #20548
   80a60:	d28a0c01 	mov	x1, #0x5060                	// #20576
   80a64:	b900001f 	str	wzr, [x0]
   80a68:	f2a7e429 	movk	x9, #0x3f21, lsl #16
   80a6c:	f2a7e421 	movk	x1, #0x3f21, lsl #16
   80a70:	d28a0988 	mov	x8, #0x504c                	// #20556
   80a74:	b9400060 	ldr	w0, [x3]
   80a78:	f2a7e428 	movk	x8, #0x3f21, lsl #16
   80a7c:	d28a0a07 	mov	x7, #0x5050                	// #20560
   80a80:	d28a0905 	mov	x5, #0x5048                	// #20552
   80a84:	32000000 	orr	w0, w0, #0x1
   80a88:	b9000060 	str	w0, [x3]
   80a8c:	b900013f 	str	wzr, [x9]
   80a90:	f2a7e427 	movk	x7, #0x3f21, lsl #16
   80a94:	b900003f 	str	wzr, [x1]
   80a98:	52800062 	mov	w2, #0x3                   	// #3
   80a9c:	f2a7e425 	movk	x5, #0x3f21, lsl #16
   80aa0:	b9000102 	str	w2, [x8]
   80aa4:	d28a0d04 	mov	x4, #0x5068                	// #20584
   80aa8:	b90000ff 	str	wzr, [x7]
   80aac:	f2a7e424 	movk	x4, #0x3f21, lsl #16
   80ab0:	528018c6 	mov	w6, #0xc6                  	// #198
   80ab4:	b90000a6 	str	w6, [x5]
   80ab8:	528021c0 	mov	w0, #0x10e                 	// #270
   80abc:	b9000080 	str	w0, [x4]
   80ac0:	b9000022 	str	w2, [x1]
   80ac4:	d65f03c0 	ret

0000000000080ac8 <uart_putc>:
   80ac8:	d28a0a82 	mov	x2, #0x5054                	// #20564
   80acc:	f2a7e422 	movk	x2, #0x3f21, lsl #16
   80ad0:	d503201f 	nop
   80ad4:	b9400041 	ldr	w1, [x2]
   80ad8:	362fffc1 	tbz	w1, #5, 80ad0 <uart_putc+0x8>
   80adc:	d28a0801 	mov	x1, #0x5040                	// #20544
   80ae0:	f2a7e421 	movk	x1, #0x3f21, lsl #16
   80ae4:	b9000020 	str	w0, [x1]
   80ae8:	d65f03c0 	ret
   80aec:	d503201f 	nop

0000000000080af0 <uart_getc>:
   80af0:	d28a0a81 	mov	x1, #0x5054                	// #20564
   80af4:	f2a7e421 	movk	x1, #0x3f21, lsl #16
   80af8:	d503201f 	nop
   80afc:	b9400020 	ldr	w0, [x1]
   80b00:	3607ffc0 	tbz	w0, #0, 80af8 <uart_getc+0x8>
   80b04:	d28a0800 	mov	x0, #0x5040                	// #20544
   80b08:	52800141 	mov	w1, #0xa                   	// #10
   80b0c:	f2a7e420 	movk	x0, #0x3f21, lsl #16
   80b10:	b9400000 	ldr	w0, [x0]
   80b14:	12001c00 	and	w0, w0, #0xff
   80b18:	7100341f 	cmp	w0, #0xd
   80b1c:	1a811000 	csel	w0, w0, w1, ne  // ne = any
   80b20:	d65f03c0 	ret
   80b24:	d503201f 	nop

0000000000080b28 <uart_puts>:
   80b28:	39400001 	ldrb	w1, [x0]
   80b2c:	34000221 	cbz	w1, 80b70 <uart_puts+0x48>
   80b30:	d28a0a82 	mov	x2, #0x5054                	// #20564
   80b34:	d28a0804 	mov	x4, #0x5040                	// #20544
   80b38:	f2a7e422 	movk	x2, #0x3f21, lsl #16
   80b3c:	f2a7e424 	movk	x4, #0x3f21, lsl #16
   80b40:	528001a5 	mov	w5, #0xd                   	// #13
   80b44:	d503201f 	nop
   80b48:	7100283f 	cmp	w1, #0xa
   80b4c:	54000140 	b.eq	80b74 <uart_puts+0x4c>  // b.none
   80b50:	38401403 	ldrb	w3, [x0], #1
   80b54:	d503201f 	nop
   80b58:	d503201f 	nop
   80b5c:	b9400041 	ldr	w1, [x2]
   80b60:	362fffc1 	tbz	w1, #5, 80b58 <uart_puts+0x30>
   80b64:	b9000083 	str	w3, [x4]
   80b68:	39400001 	ldrb	w1, [x0]
   80b6c:	35fffee1 	cbnz	w1, 80b48 <uart_puts+0x20>
   80b70:	d65f03c0 	ret
   80b74:	d503201f 	nop
   80b78:	b9400041 	ldr	w1, [x2]
   80b7c:	362fffc1 	tbz	w1, #5, 80b74 <uart_puts+0x4c>
   80b80:	b9000085 	str	w5, [x4]
   80b84:	17fffff3 	b	80b50 <uart_puts+0x28>

0000000000080b88 <uart_puthex>:
   80b88:	d28a0a82 	mov	x2, #0x5054                	// #20564
   80b8c:	d28a0806 	mov	x6, #0x5040                	// #20544
   80b90:	52800383 	mov	w3, #0x1c                  	// #28
   80b94:	f2a7e422 	movk	x2, #0x3f21, lsl #16
   80b98:	f2a7e426 	movk	x6, #0x3f21, lsl #16
   80b9c:	d503201f 	nop
   80ba0:	1ac32401 	lsr	w1, w0, w3
   80ba4:	12000c21 	and	w1, w1, #0xf
   80ba8:	1100dc25 	add	w5, w1, #0x37
   80bac:	1100c024 	add	w4, w1, #0x30
   80bb0:	7100283f 	cmp	w1, #0xa
   80bb4:	1a853084 	csel	w4, w4, w5, cc  // cc = lo, ul, last
   80bb8:	d503201f 	nop
   80bbc:	b9400041 	ldr	w1, [x2]
   80bc0:	362fffc1 	tbz	w1, #5, 80bb8 <uart_puthex+0x30>
   80bc4:	b90000c4 	str	w4, [x6]
   80bc8:	51001063 	sub	w3, w3, #0x4
   80bcc:	3100107f 	cmn	w3, #0x4
   80bd0:	54fffe81 	b.ne	80ba0 <uart_puthex+0x18>  // b.any
   80bd4:	d65f03c0 	ret

0000000000080bd8 <init_GPIO22_input>:
   80bd8:	d2800102 	mov	x2, #0x8                   	// #8
   80bdc:	d2801283 	mov	x3, #0x94                  	// #148
   80be0:	f2a7e402 	movk	x2, #0x3f20, lsl #16
   80be4:	f2a7e403 	movk	x3, #0x3f20, lsl #16
   80be8:	528012c0 	mov	w0, #0x96                  	// #150
   80bec:	b9400041 	ldr	w1, [x2]
   80bf0:	12177021 	and	w1, w1, #0xfffffe3f
   80bf4:	b9000041 	str	w1, [x2]
   80bf8:	b900007f 	str	wzr, [x3]
   80bfc:	d503201f 	nop
   80c00:	d503201f 	nop
   80c04:	71000400 	subs	w0, w0, #0x1
   80c08:	54ffffc1 	b.ne	80c00 <init_GPIO22_input+0x28>  // b.any
   80c0c:	d2801301 	mov	x1, #0x98                  	// #152
   80c10:	52a00802 	mov	w2, #0x400000              	// #4194304
   80c14:	f2a7e401 	movk	x1, #0x3f20, lsl #16
   80c18:	528012c0 	mov	w0, #0x96                  	// #150
   80c1c:	b9000022 	str	w2, [x1]
   80c20:	d503201f 	nop
   80c24:	71000400 	subs	w0, w0, #0x1
   80c28:	54ffffc1 	b.ne	80c20 <init_GPIO22_input+0x48>  // b.any
   80c2c:	d2801300 	mov	x0, #0x98                  	// #152
   80c30:	d2800981 	mov	x1, #0x4c                  	// #76
   80c34:	f2a7e400 	movk	x0, #0x3f20, lsl #16
   80c38:	f2a7e401 	movk	x1, #0x3f20, lsl #16
   80c3c:	d2964282 	mov	x2, #0xb214                	// #45588
   80c40:	52a00203 	mov	w3, #0x100000              	// #1048576
   80c44:	b900001f 	str	wzr, [x0]
   80c48:	f2a7e002 	movk	x2, #0x3f00, lsl #16
   80c4c:	b9400020 	ldr	w0, [x1]
   80c50:	320a0000 	orr	w0, w0, #0x400000
   80c54:	b9000020 	str	w0, [x1]
   80c58:	b9000043 	str	w3, [x2]
   80c5c:	d65f03c0 	ret

0000000000080c60 <init_GPIO23_input>:
   80c60:	d2800102 	mov	x2, #0x8                   	// #8
   80c64:	d2801283 	mov	x3, #0x94                  	// #148
   80c68:	f2a7e402 	movk	x2, #0x3f20, lsl #16
   80c6c:	f2a7e403 	movk	x3, #0x3f20, lsl #16
   80c70:	528012c0 	mov	w0, #0x96                  	// #150
   80c74:	b9400041 	ldr	w1, [x2]
   80c78:	12147021 	and	w1, w1, #0xfffff1ff
   80c7c:	b9000041 	str	w1, [x2]
   80c80:	b900007f 	str	wzr, [x3]
   80c84:	d503201f 	nop
   80c88:	d503201f 	nop
   80c8c:	71000400 	subs	w0, w0, #0x1
   80c90:	54ffffc1 	b.ne	80c88 <init_GPIO23_input+0x28>  // b.any
   80c94:	d2801301 	mov	x1, #0x98                  	// #152
   80c98:	52a01002 	mov	w2, #0x800000              	// #8388608
   80c9c:	f2a7e401 	movk	x1, #0x3f20, lsl #16
   80ca0:	528012c0 	mov	w0, #0x96                  	// #150
   80ca4:	b9000022 	str	w2, [x1]
   80ca8:	d503201f 	nop
   80cac:	71000400 	subs	w0, w0, #0x1
   80cb0:	54ffffc1 	b.ne	80ca8 <init_GPIO23_input+0x48>  // b.any
   80cb4:	d2801300 	mov	x0, #0x98                  	// #152
   80cb8:	d2800981 	mov	x1, #0x4c                  	// #76
   80cbc:	f2a7e400 	movk	x0, #0x3f20, lsl #16
   80cc0:	f2a7e401 	movk	x1, #0x3f20, lsl #16
   80cc4:	d2964282 	mov	x2, #0xb214                	// #45588
   80cc8:	52a00203 	mov	w3, #0x100000              	// #1048576
   80ccc:	b900001f 	str	wzr, [x0]
   80cd0:	f2a7e002 	movk	x2, #0x3f00, lsl #16
   80cd4:	b9400020 	ldr	w0, [x1]
   80cd8:	32090000 	orr	w0, w0, #0x800000
   80cdc:	b9000020 	str	w0, [x1]
   80ce0:	b9000043 	str	w3, [x2]
   80ce4:	d65f03c0 	ret

0000000000080ce8 <init_GPIO4_output>:
   80ce8:	d2a7e402 	mov	x2, #0x3f200000            	// #1059061760
   80cec:	d2801283 	mov	x3, #0x94                  	// #148
   80cf0:	f2a7e403 	movk	x3, #0x3f20, lsl #16
   80cf4:	528012c0 	mov	w0, #0x96                  	// #150
   80cf8:	b9400041 	ldr	w1, [x2]
   80cfc:	12117021 	and	w1, w1, #0xffff8fff
   80d00:	32140021 	orr	w1, w1, #0x1000
   80d04:	b9000041 	str	w1, [x2]
   80d08:	b900007f 	str	wzr, [x3]
   80d0c:	d503201f 	nop
   80d10:	d503201f 	nop
   80d14:	71000400 	subs	w0, w0, #0x1
   80d18:	54ffffc1 	b.ne	80d10 <init_GPIO4_output+0x28>  // b.any
   80d1c:	d2801301 	mov	x1, #0x98                  	// #152
   80d20:	52800202 	mov	w2, #0x10                  	// #16
   80d24:	f2a7e401 	movk	x1, #0x3f20, lsl #16
   80d28:	528012c0 	mov	w0, #0x96                  	// #150
   80d2c:	b9000022 	str	w2, [x1]
   80d30:	d503201f 	nop
   80d34:	71000400 	subs	w0, w0, #0x1
   80d38:	54ffffc1 	b.ne	80d30 <init_GPIO4_output+0x48>  // b.any
   80d3c:	d2801300 	mov	x0, #0x98                  	// #152
   80d40:	f2a7e400 	movk	x0, #0x3f20, lsl #16
   80d44:	b900001f 	str	wzr, [x0]
   80d48:	d65f03c0 	ret
   80d4c:	d503201f 	nop

0000000000080d50 <set_GPIO4>:
   80d50:	d2800380 	mov	x0, #0x1c                  	// #28
   80d54:	52800201 	mov	w1, #0x10                  	// #16
   80d58:	f2a7e400 	movk	x0, #0x3f20, lsl #16
   80d5c:	b9000001 	str	w1, [x0]
   80d60:	d65f03c0 	ret
   80d64:	d503201f 	nop

0000000000080d68 <clear_GPIO4>:
   80d68:	d2800500 	mov	x0, #0x28                  	// #40
   80d6c:	52800201 	mov	w1, #0x10                  	// #16
   80d70:	f2a7e400 	movk	x0, #0x3f20, lsl #16
   80d74:	b9000001 	str	w1, [x0]
   80d78:	d65f03c0 	ret
   80d7c:	d503201f 	nop

0000000000080d80 <init_GPIO17_output>:
   80d80:	d2800082 	mov	x2, #0x4                   	// #4
   80d84:	d2801283 	mov	x3, #0x94                  	// #148
   80d88:	f2a7e402 	movk	x2, #0x3f20, lsl #16
   80d8c:	f2a7e403 	movk	x3, #0x3f20, lsl #16
   80d90:	528012c0 	mov	w0, #0x96                  	// #150
   80d94:	b9400041 	ldr	w1, [x2]
   80d98:	12087021 	and	w1, w1, #0xff1fffff
   80d9c:	320b0021 	orr	w1, w1, #0x200000
   80da0:	b9000041 	str	w1, [x2]
   80da4:	b900007f 	str	wzr, [x3]
   80da8:	d503201f 	nop
   80dac:	71000400 	subs	w0, w0, #0x1
   80db0:	54ffffc1 	b.ne	80da8 <init_GPIO17_output+0x28>  // b.any
   80db4:	d2801301 	mov	x1, #0x98                  	// #152
   80db8:	52a00042 	mov	w2, #0x20000               	// #131072
   80dbc:	f2a7e401 	movk	x1, #0x3f20, lsl #16
   80dc0:	528012c0 	mov	w0, #0x96                  	// #150
   80dc4:	b9000022 	str	w2, [x1]
   80dc8:	d503201f 	nop
   80dcc:	71000400 	subs	w0, w0, #0x1
   80dd0:	54ffffc1 	b.ne	80dc8 <init_GPIO17_output+0x48>  // b.any
   80dd4:	d2801300 	mov	x0, #0x98                  	// #152
   80dd8:	f2a7e400 	movk	x0, #0x3f20, lsl #16
   80ddc:	b900001f 	str	wzr, [x0]
   80de0:	d65f03c0 	ret
   80de4:	d503201f 	nop

0000000000080de8 <set_GPIO17>:
   80de8:	d2800380 	mov	x0, #0x1c                  	// #28
   80dec:	52a00041 	mov	w1, #0x20000               	// #131072
   80df0:	f2a7e400 	movk	x0, #0x3f20, lsl #16
   80df4:	b9000001 	str	w1, [x0]
   80df8:	d65f03c0 	ret
   80dfc:	d503201f 	nop

0000000000080e00 <clear_GPIO17>:
   80e00:	d2800500 	mov	x0, #0x28                  	// #40
   80e04:	52a00041 	mov	w1, #0x20000               	// #131072
   80e08:	f2a7e400 	movk	x0, #0x3f20, lsl #16
   80e0c:	b9000001 	str	w1, [x0]
   80e10:	d65f03c0 	ret
   80e14:	d503201f 	nop

0000000000080e18 <init_GPIO27_output>:
   80e18:	d2800102 	mov	x2, #0x8                   	// #8
   80e1c:	d2801283 	mov	x3, #0x94                  	// #148
   80e20:	f2a7e402 	movk	x2, #0x3f20, lsl #16
   80e24:	f2a7e403 	movk	x3, #0x3f20, lsl #16
   80e28:	528012c0 	mov	w0, #0x96                  	// #150
   80e2c:	b9400041 	ldr	w1, [x2]
   80e30:	12087021 	and	w1, w1, #0xff1fffff
   80e34:	320b0021 	orr	w1, w1, #0x200000
   80e38:	b9000041 	str	w1, [x2]
   80e3c:	b900007f 	str	wzr, [x3]
   80e40:	d503201f 	nop
   80e44:	71000400 	subs	w0, w0, #0x1
   80e48:	54ffffc1 	b.ne	80e40 <init_GPIO27_output+0x28>  // b.any
   80e4c:	d2801301 	mov	x1, #0x98                  	// #152
   80e50:	52a10002 	mov	w2, #0x8000000             	// #134217728
   80e54:	f2a7e401 	movk	x1, #0x3f20, lsl #16
   80e58:	528012c0 	mov	w0, #0x96                  	// #150
   80e5c:	b9000022 	str	w2, [x1]
   80e60:	d503201f 	nop
   80e64:	71000400 	subs	w0, w0, #0x1
   80e68:	54ffffc1 	b.ne	80e60 <init_GPIO27_output+0x48>  // b.any
   80e6c:	d2801300 	mov	x0, #0x98                  	// #152
   80e70:	f2a7e400 	movk	x0, #0x3f20, lsl #16
   80e74:	b900001f 	str	wzr, [x0]
   80e78:	d65f03c0 	ret
   80e7c:	d503201f 	nop

0000000000080e80 <set_GPIO27>:
   80e80:	d2800380 	mov	x0, #0x1c                  	// #28
   80e84:	52a10001 	mov	w1, #0x8000000             	// #134217728
   80e88:	f2a7e400 	movk	x0, #0x3f20, lsl #16
   80e8c:	b9000001 	str	w1, [x0]
   80e90:	d65f03c0 	ret
   80e94:	d503201f 	nop

0000000000080e98 <clear_GPIO27>:
   80e98:	d2800500 	mov	x0, #0x28                  	// #40
   80e9c:	52a10001 	mov	w1, #0x8000000             	// #134217728
   80ea0:	f2a7e400 	movk	x0, #0x3f20, lsl #16
   80ea4:	b9000001 	str	w1, [x0]
   80ea8:	d65f03c0 	ret
   80eac:	00000000 	.inst	0x00000000 ; undefined

0000000000080eb0 <main>:
   80eb0:	a9bb7bfd 	stp	x29, x30, [sp, #-80]!
   80eb4:	910003fd 	mov	x29, sp
   80eb8:	a90153f3 	stp	x19, x20, [sp, #16]
   80ebc:	b0000013 	adrp	x19, 81000 <main+0x150>
   80ec0:	a9025bf5 	stp	x21, x22, [sp, #32]
   80ec4:	a90363f7 	stp	x23, x24, [sp, #48]
   80ec8:	a9046bf9 	stp	x25, x26, [sp, #64]
   80ecc:	b901a27f 	str	wzr, [x19, #416]
   80ed0:	97fffec8 	bl	809f0 <uart_init>
   80ed4:	97ffff63 	bl	80c60 <init_GPIO23_input>
   80ed8:	97ffff40 	bl	80bd8 <init_GPIO22_input>
   80edc:	d2a7e402 	mov	x2, #0x3f200000            	// #1059061760
   80ee0:	d2801283 	mov	x3, #0x94                  	// #148
   80ee4:	f2a7e403 	movk	x3, #0x3f20, lsl #16
   80ee8:	528012c1 	mov	w1, #0x96                  	// #150
   80eec:	b9400040 	ldr	w0, [x2]
   80ef0:	12117000 	and	w0, w0, #0xffff8fff
   80ef4:	32140000 	orr	w0, w0, #0x1000
   80ef8:	b9000040 	str	w0, [x2]
   80efc:	b900007f 	str	wzr, [x3]
   80f00:	d503201f 	nop
   80f04:	71000421 	subs	w1, w1, #0x1
   80f08:	54ffffc1 	b.ne	80f00 <main+0x50>  // b.any
   80f0c:	d2801301 	mov	x1, #0x98                  	// #152
   80f10:	52800202 	mov	w2, #0x10                  	// #16
   80f14:	f2a7e401 	movk	x1, #0x3f20, lsl #16
   80f18:	528012c0 	mov	w0, #0x96                  	// #150
   80f1c:	b9000022 	str	w2, [x1]
   80f20:	d503201f 	nop
   80f24:	71000400 	subs	w0, w0, #0x1
   80f28:	54ffffc1 	b.ne	80f20 <main+0x70>  // b.any
   80f2c:	d2801300 	mov	x0, #0x98                  	// #152
   80f30:	d2800082 	mov	x2, #0x4                   	// #4
   80f34:	f2a7e400 	movk	x0, #0x3f20, lsl #16
   80f38:	f2a7e402 	movk	x2, #0x3f20, lsl #16
   80f3c:	d2801283 	mov	x3, #0x94                  	// #148
   80f40:	528012c1 	mov	w1, #0x96                  	// #150
   80f44:	b900001f 	str	wzr, [x0]
   80f48:	f2a7e403 	movk	x3, #0x3f20, lsl #16
   80f4c:	b9400040 	ldr	w0, [x2]
   80f50:	12087000 	and	w0, w0, #0xff1fffff
   80f54:	320b0000 	orr	w0, w0, #0x200000
   80f58:	b9000040 	str	w0, [x2]
   80f5c:	b900007f 	str	wzr, [x3]
   80f60:	d503201f 	nop
   80f64:	71000421 	subs	w1, w1, #0x1
   80f68:	54ffffc1 	b.ne	80f60 <main+0xb0>  // b.any
   80f6c:	d2801301 	mov	x1, #0x98                  	// #152
   80f70:	52a00042 	mov	w2, #0x20000               	// #131072
   80f74:	f2a7e401 	movk	x1, #0x3f20, lsl #16
   80f78:	528012c0 	mov	w0, #0x96                  	// #150
   80f7c:	b9000022 	str	w2, [x1]
   80f80:	d503201f 	nop
   80f84:	71000400 	subs	w0, w0, #0x1
   80f88:	54ffffc1 	b.ne	80f80 <main+0xd0>  // b.any
   80f8c:	d2801300 	mov	x0, #0x98                  	// #152
   80f90:	d2800102 	mov	x2, #0x8                   	// #8
   80f94:	f2a7e400 	movk	x0, #0x3f20, lsl #16
   80f98:	f2a7e402 	movk	x2, #0x3f20, lsl #16
   80f9c:	d2801283 	mov	x3, #0x94                  	// #148
   80fa0:	528012c1 	mov	w1, #0x96                  	// #150
   80fa4:	b900001f 	str	wzr, [x0]
   80fa8:	f2a7e403 	movk	x3, #0x3f20, lsl #16
   80fac:	b9400040 	ldr	w0, [x2]
   80fb0:	12087000 	and	w0, w0, #0xff1fffff
   80fb4:	320b0000 	orr	w0, w0, #0x200000
   80fb8:	b9000040 	str	w0, [x2]
   80fbc:	b900007f 	str	wzr, [x3]
   80fc0:	d503201f 	nop
   80fc4:	71000421 	subs	w1, w1, #0x1
   80fc8:	54ffffc1 	b.ne	80fc0 <main+0x110>  // b.any
   80fcc:	d2801301 	mov	x1, #0x98                  	// #152
   80fd0:	52a10002 	mov	w2, #0x8000000             	// #134217728
   80fd4:	f2a7e401 	movk	x1, #0x3f20, lsl #16
   80fd8:	528012c0 	mov	w0, #0x96                  	// #150
   80fdc:	b9000022 	str	w2, [x1]
   80fe0:	d503201f 	nop
   80fe4:	71000400 	subs	w0, w0, #0x1
   80fe8:	54ffffc1 	b.ne	80fe0 <main+0x130>  // b.any
   80fec:	d2801300 	mov	x0, #0x98                  	// #152
   80ff0:	d280039a 	mov	x26, #0x1c                  	// #28
   80ff4:	f2a7e400 	movk	x0, #0x3f20, lsl #16
   80ff8:	d2800519 	mov	x25, #0x28                  	// #40
   80ffc:	91068273 	add	x19, x19, #0x1a0
   81000:	90000015 	adrp	x21, 81000 <main+0x150>
   81004:	b900001f 	str	wzr, [x0]
   81008:	90000014 	adrp	x20, 81000 <main+0x150>
   8100c:	f2a7e41a 	movk	x26, #0x3f20, lsl #16
   81010:	f2a7e419 	movk	x25, #0x3f20, lsl #16
   81014:	97fffe6f 	bl	809d0 <enableIRQ>
   81018:	b9400260 	ldr	w0, [x19]
   8101c:	910602b8 	add	x24, x21, #0x180
   81020:	91064297 	add	x23, x20, #0x190
   81024:	52800216 	mov	w22, #0x10                  	// #16
   81028:	34000380 	cbz	w0, 81098 <main+0x1e8>
   8102c:	7100041f 	cmp	w0, #0x1
   81030:	54ffffc1 	b.ne	81028 <main+0x178>  // b.any
   81034:	52a10001 	mov	w1, #0x8000000             	// #134217728
   81038:	12bffe00 	mov	w0, #0xfffff               	// #1048575
   8103c:	b9000341 	str	w1, [x26]
   81040:	d503201f 	nop
   81044:	71000400 	subs	w0, w0, #0x1
   81048:	54ffffc1 	b.ne	81040 <main+0x190>  // b.any
   8104c:	52a10000 	mov	w0, #0x8000000             	// #134217728
   81050:	b9000320 	str	w0, [x25]
   81054:	52a00041 	mov	w1, #0x20000               	// #131072
   81058:	12bffe00 	mov	w0, #0xfffff               	// #1048575
   8105c:	b9000341 	str	w1, [x26]
   81060:	d503201f 	nop
   81064:	71000400 	subs	w0, w0, #0x1
   81068:	54ffffc1 	b.ne	81060 <main+0x1b0>  // b.any
   8106c:	52a00040 	mov	w0, #0x20000               	// #131072
   81070:	b9000320 	str	w0, [x25]
   81074:	52800201 	mov	w1, #0x10                  	// #16
   81078:	12bffe00 	mov	w0, #0xfffff               	// #1048575
   8107c:	b9000341 	str	w1, [x26]
   81080:	d503201f 	nop
   81084:	71000400 	subs	w0, w0, #0x1
   81088:	54ffffc1 	b.ne	81080 <main+0x1d0>  // b.any
   8108c:	52800200 	mov	w0, #0x10                  	// #16
   81090:	b9000320 	str	w0, [x25]
   81094:	17ffffe1 	b	81018 <main+0x168>
   81098:	b9000356 	str	w22, [x26]
   8109c:	aa1803e0 	mov	x0, x24
   810a0:	97fffea2 	bl	80b28 <uart_puts>
   810a4:	12bffc00 	mov	w0, #0x1fffff              	// #2097151
   810a8:	d503201f 	nop
   810ac:	71000400 	subs	w0, w0, #0x1
   810b0:	54ffffc1 	b.ne	810a8 <main+0x1f8>  // b.any
   810b4:	b9000336 	str	w22, [x25]
   810b8:	aa1703e0 	mov	x0, x23
   810bc:	97fffe9b 	bl	80b28 <uart_puts>
   810c0:	52a00041 	mov	w1, #0x20000               	// #131072
   810c4:	12bffc00 	mov	w0, #0x1fffff              	// #2097151
   810c8:	b9000341 	str	w1, [x26]
   810cc:	d503201f 	nop
   810d0:	d503201f 	nop
   810d4:	71000400 	subs	w0, w0, #0x1
   810d8:	54ffffc1 	b.ne	810d0 <main+0x220>  // b.any
   810dc:	52a00040 	mov	w0, #0x20000               	// #131072
   810e0:	b9000320 	str	w0, [x25]
   810e4:	52a10001 	mov	w1, #0x8000000             	// #134217728
   810e8:	12bffc00 	mov	w0, #0x1fffff              	// #2097151
   810ec:	b9000341 	str	w1, [x26]
   810f0:	d503201f 	nop
   810f4:	71000400 	subs	w0, w0, #0x1
   810f8:	54ffffc1 	b.ne	810f0 <main+0x240>  // b.any
   810fc:	52a10000 	mov	w0, #0x8000000             	// #134217728
   81100:	b9000320 	str	w0, [x25]
   81104:	b9400260 	ldr	w0, [x19]
   81108:	17ffffc9 	b	8102c <main+0x17c>
   8110c:	00000000 	.inst	0x00000000 ; undefined

0000000000081110 <IRQ_handler>:
   81110:	d2964100 	mov	x0, #0xb208                	// #45576
   81114:	f2a7e000 	movk	x0, #0x3f00, lsl #16
   81118:	b9400000 	ldr	w0, [x0]
   8111c:	7144001f 	cmp	w0, #0x100, lsl #12
   81120:	54000040 	b.eq	81128 <IRQ_handler+0x18>  // b.none
   81124:	d65f03c0 	ret
   81128:	d2800800 	mov	x0, #0x40                  	// #64
   8112c:	f2a7e400 	movk	x0, #0x3f20, lsl #16
   81130:	b9400001 	ldr	w1, [x0]
   81134:	7150003f 	cmp	w1, #0x400, lsl #12
   81138:	54000160 	b.eq	81164 <IRQ_handler+0x54>  // b.none
   8113c:	b9400001 	ldr	w1, [x0]
   81140:	7160003f 	cmp	w1, #0x800, lsl #12
   81144:	54ffff01 	b.ne	81124 <IRQ_handler+0x14>  // b.any
   81148:	b9000001 	str	w1, [x0]
   8114c:	90000000 	adrp	x0, 81000 <main+0x150>
   81150:	b941a001 	ldr	w1, [x0, #416]
   81154:	7100043f 	cmp	w1, #0x1
   81158:	54fffe61 	b.ne	81124 <IRQ_handler+0x14>  // b.any
   8115c:	b901a01f 	str	wzr, [x0, #416]
   81160:	d65f03c0 	ret
   81164:	b9000001 	str	w1, [x0]
   81168:	90000000 	adrp	x0, 81000 <main+0x150>
   8116c:	b941a001 	ldr	w1, [x0, #416]
   81170:	35fffda1 	cbnz	w1, 81124 <IRQ_handler+0x14>
   81174:	52800021 	mov	w1, #0x1                   	// #1
   81178:	b901a001 	str	w1, [x0, #416]
   8117c:	d65f03c0 	ret
